target datalayout = "e-m:e-p270:32:32-p271:32:32-p272:64:64-i64:64-i128:128-f80:128-n8:16:32:64-S128"
target triple = "x86_64-pc-linux-gnu"

%struct.CommonModeInfoParams = type { i32, i32, i32, i32, i32, ptr, i32, i32, i8, ptr, i32, i32, ptr, ptr, ptr, ptr }

; Function Attrs: nounwind uwtable
define internal i32 @calc_mi_size(i32 noundef %0) #0 {
  %2 = alloca i32, align 4
  store i32 %0, ptr %2, align 4
  %3 = load i32, ptr %2, align 4
  %4 = add nsw i32 %3, 31
  %5 = and i32 %4, -32
  ret i32 %5
}

; Function Attrs: nounwind uwtable
define internal void @dec_setup_mi(ptr noundef %0) #0 {
  %2 = alloca ptr, align 8
  %3 = alloca i32, align 4
  store ptr %0, ptr %2, align 8
  %4 = load ptr, ptr %2, align 8
  %5 = getelementptr inbounds nuw %struct.CommonModeInfoParams, ptr %4, i32 0, i32 11
  %6 = load i32, ptr %5, align 4
  %7 = load ptr, ptr %2, align 8
  %8 = getelementptr inbounds nuw %struct.CommonModeInfoParams, ptr %7, i32 0, i32 3
  %9 = load i32, ptr %8, align 4
  %10 = call i32 @calc_mi_size(i32 noundef %9)
  %11 = mul nsw i32 %6, %10
  store i32 %11, ptr %3, align 4
  %12 = load ptr, ptr %2, align 8
  %13 = getelementptr inbounds nuw %struct.CommonModeInfoParams, ptr %12, i32 0, i32 9
  %14 = load ptr, ptr %13, align 8
  %15 = load i32, ptr %3, align 4
  %16 = sext i32 %15 to i64
  %17 = mul i64 %16, 8
  call void @llvm.memset.p0.i64(ptr align 8 %14, i8 0, i64 %17, i1 false)
  ret void
}