; Function Attrs: mustprogress nofree norecurse nosync nounwind willreturn memory(write, argmem: readwrite, inaccessiblemem: none) uwtable
define internal void @dec_setup_mi(ptr nocapture noundef readonly %0) #4 {
  %2 = getelementptr inbounds nuw i8, ptr %0, i64 60
  %3 = load i32, ptr %2, align 4
  %4 = getelementptr inbounds nuw i8, ptr %0, i64 12
  %5 = load i32, ptr %4, align 4
  %6 = add nsw i32 %5, 31
  %7 = and i32 %6, -32
  %8 = mul nsw i32 %7, %3
  %9 = getelementptr inbounds nuw i8, ptr %0, i64 48
  %10 = load ptr, ptr %9, align 8
  %11 = sext i32 %8 to i64
  %12 = shl nsw i64 %11, 3
  tail call void @llvm.memset.p0.i64(ptr align 8 %10, i8 0, i64 %12, i1 false)
  ret void
}